target datalayout = "e-m:e-p270:32:32-p271:32:32-p272:64:64-i64:64-i128:128-f80:128-n8:16:32:64-S128"
target triple = "x86_64-pc-linux-gnu"

%struct._zval_struct = type { %union._zend_value, %union.anon, %union.anon.2 }
%union._zend_value = type { i64 }
%union.anon = type { i32 }
%union.anon.2 = type { i32 }

; Function Attrs: nounwind uwtable
define dso_local void @destroy_zend_function(ptr noundef %0) #0 {
  %2 = alloca ptr, align 8
  %3 = alloca %struct._zval_struct, align 8
  store ptr %0, ptr %2, align 8, !tbaa !62
  call void @llvm.lifetime.start.p0(i64 16, ptr %3) #14
  br label %4

4:                                                ; preds = %1
  %5 = load ptr, ptr %2, align 8, !tbaa !62
  %6 = getelementptr inbounds nuw %struct._zval_struct, ptr %3, i32 0, i32 0
  store ptr %5, ptr %6, align 8, !tbaa !9
  %7 = getelementptr inbounds nuw %struct._zval_struct, ptr %3, i32 0, i32 1
  store i32 13, ptr %7, align 8, !tbaa !9
  br label %8

8:                                                ; preds = %4
  br label %9

9:                                                ; preds = %8
  call void @zend_function_dtor(ptr noundef %3)
  call void @llvm.lifetime.end.p0(i64 16, ptr %3) #14
  ret void
}