; Function Attrs: nounwind uwtable
define dso_local void @destroy_zend_function(ptr noundef %0) local_unnamed_addr #0 {
  %2 = alloca %struct._zval_struct, align 8
  call void @llvm.lifetime.start.p0(i64 16, ptr nonnull %2) #14
  store ptr %0, ptr %2, align 8, !tbaa !23
  %3 = getelementptr inbounds nuw i8, ptr %2, i64 8
  store i32 13, ptr %3, align 8, !tbaa !23
  call void @zend_function_dtor(ptr noundef nonnull %2)
  call void @llvm.lifetime.end.p0(i64 16, ptr nonnull %2) #14
  ret void
}